; ModuleID = '38/55.c'
source_filename = "38/55.c"
target datalayout = "e-m:e-p270:32:32-p271:32:32-p272:64:64-i64:64-f80:128-n8:16:32:64-S128"
target triple = "x86_64-pc-linux-gnu"

@.str = private unnamed_addr constant [3 x i8] c"%d\00", align 1
@.str.1 = private unnamed_addr constant [4 x i8] c"%lf\00", align 1
@.str.2 = private unnamed_addr constant [6 x i8] c"%.5lf\00", align 1
@.str.3 = private unnamed_addr constant [2 x i8] c"\0A\00", align 1
@.str.4 = private unnamed_addr constant [1 x i8] zeroinitializer, align 1

; Function Attrs: noinline nounwind uwtable
define dso_local i32 @main(i32 %0, i8** %1) #0 {
  %3 = alloca i32, align 4
  %4 = alloca i32, align 4
  %5 = alloca i8**, align 8
  %6 = alloca i32, align 4
  %7 = alloca i32, align 4
  %8 = alloca i32, align 4
  %9 = alloca i32, align 4
  %10 = alloca [1000 x double], align 16
  %11 = alloca double, align 8
  %12 = alloca double, align 8
  %13 = alloca double, align 8
  store i32 0, i32* %3, align 4
  store i32 %0, i32* %4, align 4
  store i8** %1, i8*** %5, align 8
  %14 = call i32 (i8*, ...) @__isoc99_scanf(i8* getelementptr inbounds ([3 x i8], [3 x i8]* @.str, i64 0, i64 0), i32* %6)
  store double 0.000000e+00, double* %11, align 8
  store double 0.000000e+00, double* %13, align 8
  store i32 0, i32* %7, align 4
  br label %15

15:                                               ; preds = %88, %2
  %16 = load i32, i32* %7, align 4
  %17 = load i32, i32* %6, align 4
  %18 = sub nsw i32 %17, 1
  %19 = icmp sle i32 %16, %18
  br i1 %19, label %20, label %91

20:                                               ; preds = %15
  %21 = call i32 (i8*, ...) @__isoc99_scanf(i8* getelementptr inbounds ([3 x i8], [3 x i8]* @.str, i64 0, i64 0), i32* %9)
  store double 0.000000e+00, double* %11, align 8
  store double 0.000000e+00, double* %13, align 8
  store i32 0, i32* %8, align 4
  br label %22

22:                                               ; preds = %39, %20
  %23 = load i32, i32* %8, align 4
  %24 = load i32, i32* %9, align 4
  %25 = sub nsw i32 %24, 1
  %26 = icmp sle i32 %23, %25
  br i1 %26, label %27, label %42

27:                                               ; preds = %22
  %28 = getelementptr inbounds [1000 x double], [1000 x double]* %10, i64 0, i64 0
  %29 = load i32, i32* %8, align 4
  %30 = sext i32 %29 to i64
  %31 = getelementptr inbounds double, double* %28, i64 %30
  %32 = call i32 (i8*, ...) @__isoc99_scanf(i8* getelementptr inbounds ([4 x i8], [4 x i8]* @.str.1, i64 0, i64 0), double* %31)
  %33 = load i32, i32* %8, align 4
  %34 = sext i32 %33 to i64
  %35 = getelementptr inbounds [1000 x double], [1000 x double]* %10, i64 0, i64 %34
  %36 = load double, double* %35, align 8
  %37 = load double, double* %11, align 8
  %38 = fadd double %37, %36
  store double %38, double* %11, align 8
  br label %39

39:                                               ; preds = %27
  %40 = load i32, i32* %8, align 4
  %41 = add nsw i32 %40, 1
  store i32 %41, i32* %8, align 4
  br label %22

42:                                               ; preds = %22
  %43 = load double, double* %11, align 8
  %44 = load i32, i32* %9, align 4
  %45 = sitofp i32 %44 to double
  %46 = fdiv double %43, %45
  store double %46, double* %12, align 8
  store i32 0, i32* %8, align 4
  br label %47

47:                                               ; preds = %68, %42
  %48 = load i32, i32* %8, align 4
  %49 = load i32, i32* %9, align 4
  %50 = sub nsw i32 %49, 1
  %51 = icmp sle i32 %48, %50
  br i1 %51, label %52, label %71

52:                                               ; preds = %47
  %53 = load i32, i32* %8, align 4
  %54 = sext i32 %53 to i64
  %55 = getelementptr inbounds [1000 x double], [1000 x double]* %10, i64 0, i64 %54
  %56 = load double, double* %55, align 8
  %57 = load double, double* %12, align 8
  %58 = fsub double %56, %57
  %59 = load i32, i32* %8, align 4
  %60 = sext i32 %59 to i64
  %61 = getelementptr inbounds [1000 x double], [1000 x double]* %10, i64 0, i64 %60
  %62 = load double, double* %61, align 8
  %63 = load double, double* %12, align 8
  %64 = fsub double %62, %63
  %65 = fmul double %58, %64
  %66 = load double, double* %13, align 8
  %67 = fadd double %66, %65
  store double %67, double* %13, align 8
  br label %68

68:                                               ; preds = %52
  %69 = load i32, i32* %8, align 4
  %70 = add nsw i32 %69, 1
  store i32 %70, i32* %8, align 4
  br label %47

71:                                               ; preds = %47
  %72 = load double, double* %13, align 8
  %73 = load i32, i32* %9, align 4
  %74 = sitofp i32 %73 to double
  %75 = fdiv double %72, %74
  %76 = call double @sqrt(double %75) #3
  %77 = call i32 (i8*, ...) @printf(i8* getelementptr inbounds ([6 x i8], [6 x i8]* @.str.2, i64 0, i64 0), double %76)
  %78 = load i32, i32* %7, align 4
  %79 = load i32, i32* %6, align 4
  %80 = sub nsw i32 %79, 2
  %81 = icmp sle i32 %78, %80
  br i1 %81, label %82, label %84

82:                                               ; preds = %71
  %83 = call i32 (i8*, ...) @printf(i8* getelementptr inbounds ([2 x i8], [2 x i8]* @.str.3, i64 0, i64 0))
  br label %86

84:                                               ; preds = %71
  %85 = call i32 (i8*, ...) @printf(i8* getelementptr inbounds ([1 x i8], [1 x i8]* @.str.4, i64 0, i64 0))
  br label %86

86:                                               ; preds = %84, %82
  %87 = phi i32 [ %83, %82 ], [ %85, %84 ]
  br label %88

88:                                               ; preds = %86
  %89 = load i32, i32* %7, align 4
  %90 = add nsw i32 %89, 1
  store i32 %90, i32* %7, align 4
  br label %15

91:                                               ; preds = %15
  ret i32 0
}

declare dso_local i32 @__isoc99_scanf(i8*, ...) #1

declare dso_local i32 @printf(i8*, ...) #1

; Function Attrs: nounwind
declare dso_local double @sqrt(double) #2


!llvm.module.flags = !{!0}
!llvm.ident = !{!1}

!0 = !{i32 1, !"wchar_size", i32 4}
!1 = !{!"clang version 10.0.0-4ubuntu1 "}
